target datalayout = "e-m:e-p270:32:32-p271:32:32-p272:64:64-i64:64-i128:128-f80:128-n8:16:32:64-S128"
target triple = "x86_64-pc-linux-gnu"

%struct.Abc_Cex_t_ = type { i32, i32, i32, i32, i32, [0 x i32] }
%struct.Gia_Man_t_ = type { ptr, ptr, i32, i32, i32, i32, ptr, ptr, i32, i32, i32, ptr, ptr, %struct.Vec_Int_t_, %struct.Vec_Int_t_, i32, i32, i32, %struct.Vec_Int_t_, ptr, ptr, ptr, i32, i32, i32, i32, ptr, ptr, ptr, ptr, ptr, i32, i32, ptr, i32, ptr, ptr, ptr, ptr, ptr, ptr, ptr, ptr, ptr, ptr, ptr, ptr, ptr, ptr, ptr, ptr, ptr, ptr, %struct.Vec_Int_t_, %struct.Vec_Int_t_, ptr, ptr, ptr, ptr, ptr, ptr, ptr, ptr, ptr, ptr, ptr, ptr, ptr, ptr, ptr, ptr, ptr, ptr, ptr, ptr, ptr, i32, float, float, ptr, ptr, i32, ptr, ptr, ptr, ptr, ptr, ptr, ptr, ptr, ptr, ptr, ptr, ptr, ptr, ptr, ptr, i64, i64, ptr, ptr, i32, i32, i32, i32, i32, i32, i32, i32, i32, i32, i32, i32, ptr, ptr, ptr, ptr, ptr, ptr, ptr, ptr, i32, i32, i32, ptr, i32, i32, ptr, ptr, ptr, ptr, ptr, ptr, i32, i32, ptr, %struct.Vec_Int_t_, %struct.Vec_Int_t_, %struct.Vec_Int_t_, ptr, ptr, ptr, i32, i32, i32, i32, ptr, ptr, ptr, ptr, ptr }
%struct.Vec_Int_t_ = type { i32, i32, ptr }
%struct.Gia_Obj_t_ = type <{ i64, i32 }>

; Function Attrs: inlinehint nounwind uwtable
define internal ptr @Gia_ManObj(ptr noundef %0, i32 noundef %1) #3 {
  %3 = alloca ptr, align 8
  %4 = alloca i32, align 4
  store ptr %0, ptr %3, align 8, !tbaa !3
  store i32 %1, ptr %4, align 4, !tbaa !15
  %5 = load ptr, ptr %3, align 8, !tbaa !3
  %6 = getelementptr inbounds nuw %struct.Gia_Man_t_, ptr %5, i32 0, i32 6
  %7 = load ptr, ptr %6, align 8, !tbaa !46
  %8 = load i32, ptr %4, align 4, !tbaa !15
  %9 = sext i32 %8 to i64
  %10 = getelementptr inbounds %struct.Gia_Obj_t_, ptr %7, i64 %9
  ret ptr %10
}

; Function Attrs: inlinehint nounwind uwtable
define internal i32 @Gia_ManPoNum(ptr noundef %0) #3 {
  %2 = alloca ptr, align 8
  store ptr %0, ptr %2, align 8, !tbaa !3
  %3 = load ptr, ptr %2, align 8, !tbaa !3
  %4 = getelementptr inbounds nuw %struct.Gia_Man_t_, ptr %3, i32 0, i32 12
  %5 = load ptr, ptr %4, align 8, !tbaa !42
  %6 = call i32 @Vec_IntSize(ptr noundef %5)
  %7 = load ptr, ptr %2, align 8, !tbaa !3
  %8 = getelementptr inbounds nuw %struct.Gia_Man_t_, ptr %7, i32 0, i32 2
  %9 = load i32, ptr %8, align 8, !tbaa !47
  %10 = sub nsw i32 %6, %9
  ret i32 %10
}

; Function Attrs: inlinehint nounwind uwtable
define internal i32 @Vec_IntEntry(ptr noundef %0, i32 noundef %1) #3 {
  %3 = alloca ptr, align 8
  %4 = alloca i32, align 4
  store ptr %0, ptr %3, align 8, !tbaa !50
  store i32 %1, ptr %4, align 4, !tbaa !15
  %5 = load ptr, ptr %3, align 8, !tbaa !50
  %6 = getelementptr inbounds nuw %struct.Vec_Int_t_, ptr %5, i32 0, i32 2
  %7 = load ptr, ptr %6, align 8, !tbaa !57
  %8 = load i32, ptr %4, align 4, !tbaa !15
  %9 = sext i32 %8 to i64
  %10 = getelementptr inbounds i32, ptr %7, i64 %9
  %11 = load i32, ptr %10, align 4, !tbaa !15
  ret i32 %11
}

; Function Attrs: inlinehint nounwind uwtable
define internal ptr @Gia_ManCi(ptr noundef %0, i32 noundef %1) #3 {
  %3 = alloca ptr, align 8
  %4 = alloca i32, align 4
  store ptr %0, ptr %3, align 8, !tbaa !3
  store i32 %1, ptr %4, align 4, !tbaa !15
  %5 = load ptr, ptr %3, align 8, !tbaa !3
  %6 = load ptr, ptr %3, align 8, !tbaa !3
  %7 = getelementptr inbounds nuw %struct.Gia_Man_t_, ptr %6, i32 0, i32 11
  %8 = load ptr, ptr %7, align 8, !tbaa !48
  %9 = load i32, ptr %4, align 4, !tbaa !15
  %10 = call i32 @Vec_IntEntry(ptr noundef %8, i32 noundef %9)
  %11 = call ptr @Gia_ManObj(ptr noundef %5, i32 noundef %10)
  ret ptr %11
}

; Function Attrs: inlinehint nounwind uwtable
define internal i32 @Gia_ManPiNum(ptr noundef %0) #3 {
  %2 = alloca ptr, align 8
  store ptr %0, ptr %2, align 8, !tbaa !3
  %3 = load ptr, ptr %2, align 8, !tbaa !3
  %4 = getelementptr inbounds nuw %struct.Gia_Man_t_, ptr %3, i32 0, i32 11
  %5 = load ptr, ptr %4, align 8, !tbaa !48
  %6 = call i32 @Vec_IntSize(ptr noundef %5)
  %7 = load ptr, ptr %2, align 8, !tbaa !3
  %8 = getelementptr inbounds nuw %struct.Gia_Man_t_, ptr %7, i32 0, i32 2
  %9 = load i32, ptr %8, align 8, !tbaa !47
  %10 = sub nsw i32 %6, %9
  ret i32 %10
}

; Function Attrs: inlinehint nounwind uwtable
define internal i32 @Gia_ManRegNum(ptr noundef %0) #3 {
  %2 = alloca ptr, align 8
  store ptr %0, ptr %2, align 8, !tbaa !3
  %3 = load ptr, ptr %2, align 8, !tbaa !3
  %4 = getelementptr inbounds nuw %struct.Gia_Man_t_, ptr %3, i32 0, i32 2
  %5 = load i32, ptr %4, align 8, !tbaa !47
  ret i32 %5
}

; Function Attrs: inlinehint nounwind uwtable
define internal ptr @Gia_ManPo(ptr noundef %0, i32 noundef %1) #3 {
  %3 = alloca ptr, align 8
  %4 = alloca i32, align 4
  store ptr %0, ptr %3, align 8, !tbaa !3
  store i32 %1, ptr %4, align 4, !tbaa !15
  %5 = load ptr, ptr %3, align 8, !tbaa !3
  %6 = load i32, ptr %4, align 4, !tbaa !15
  %7 = call ptr @Gia_ManCo(ptr noundef %5, i32 noundef %6)
  ret ptr %7
}

; Function Attrs: inlinehint nounwind uwtable
define internal ptr @Gia_ManCo(ptr noundef %0, i32 noundef %1) #3 {
  %3 = alloca ptr, align 8
  %4 = alloca i32, align 4
  store ptr %0, ptr %3, align 8, !tbaa !3
  store i32 %1, ptr %4, align 4, !tbaa !15
  %5 = load ptr, ptr %3, align 8, !tbaa !3
  %6 = load ptr, ptr %3, align 8, !tbaa !3
  %7 = getelementptr inbounds nuw %struct.Gia_Man_t_, ptr %6, i32 0, i32 12
  %8 = load ptr, ptr %7, align 8, !tbaa !42
  %9 = load i32, ptr %4, align 4, !tbaa !15
  %10 = call i32 @Vec_IntEntry(ptr noundef %8, i32 noundef %9)
  %11 = call ptr @Gia_ManObj(ptr noundef %5, i32 noundef %10)
  ret ptr %11
}

; Function Attrs: inlinehint nounwind uwtable
define internal i32 @Vec_IntSize(ptr noundef %0) #3 {
  %2 = alloca ptr, align 8
  store ptr %0, ptr %2, align 8, !tbaa !50
  %3 = load ptr, ptr %2, align 8, !tbaa !50
  %4 = getelementptr inbounds nuw %struct.Vec_Int_t_, ptr %3, i32 0, i32 1
  %5 = load i32, ptr %4, align 4, !tbaa !51
  ret i32 %5
}

; Function Attrs: nounwind uwtable
define ptr @Bmc_CexCarePropagateBwd(ptr noundef %0, ptr noundef %1, ptr noundef %2, ptr noundef %3) #0 {
  %5 = alloca ptr, align 8
  %6 = alloca ptr, align 8
  %7 = alloca ptr, align 8
  %8 = alloca ptr, align 8
  %9 = alloca ptr, align 8
  %10 = alloca ptr, align 8
  %11 = alloca ptr, align 8
  %12 = alloca i32, align 4
  %13 = alloca i32, align 4
  store ptr %0, ptr %5, align 8, !tbaa !3
  store ptr %1, ptr %6, align 8, !tbaa !8
  store ptr %2, ptr %7, align 8, !tbaa !50
  store ptr %3, ptr %8, align 8, !tbaa !50
  call void @llvm.lifetime.start.p0(i64 8, ptr %9) #8
  call void @llvm.lifetime.start.p0(i64 8, ptr %10) #8
  call void @llvm.lifetime.start.p0(i64 8, ptr %11) #8
  call void @llvm.lifetime.start.p0(i64 4, ptr %12) #8
  call void @llvm.lifetime.start.p0(i64 4, ptr %13) #8
  %14 = load ptr, ptr %6, align 8, !tbaa !8
  %15 = getelementptr inbounds nuw %struct.Abc_Cex_t_, ptr %14, i32 0, i32 2
  %16 = load i32, ptr %15, align 4, !tbaa !10
  %17 = load ptr, ptr %6, align 8, !tbaa !8
  %18 = getelementptr inbounds nuw %struct.Abc_Cex_t_, ptr %17, i32 0, i32 3
  %19 = load i32, ptr %18, align 4, !tbaa !20
  %20 = load ptr, ptr %6, align 8, !tbaa !8
  %21 = getelementptr inbounds nuw %struct.Abc_Cex_t_, ptr %20, i32 0, i32 1
  %22 = load i32, ptr %21, align 4, !tbaa !13
  %23 = add nsw i32 %22, 1
  %24 = call ptr @Abc_CexAlloc(i32 noundef %16, i32 noundef %19, i32 noundef %23)
  store ptr %24, ptr %9, align 8, !tbaa !8
  %25 = load ptr, ptr %6, align 8, !tbaa !8
  %26 = getelementptr inbounds nuw %struct.Abc_Cex_t_, ptr %25, i32 0, i32 0
  %27 = load i32, ptr %26, align 4, !tbaa !14
  %28 = load ptr, ptr %9, align 8, !tbaa !8
  %29 = getelementptr inbounds nuw %struct.Abc_Cex_t_, ptr %28, i32 0, i32 0
  store i32 %27, ptr %29, align 4, !tbaa !14
  %30 = load ptr, ptr %6, align 8, !tbaa !8
  %31 = getelementptr inbounds nuw %struct.Abc_Cex_t_, ptr %30, i32 0, i32 1
  %32 = load i32, ptr %31, align 4, !tbaa !13
  %33 = load ptr, ptr %9, align 8, !tbaa !8
  %34 = getelementptr inbounds nuw %struct.Abc_Cex_t_, ptr %33, i32 0, i32 1
  store i32 %32, ptr %34, align 4, !tbaa !13
  store i32 0, ptr %13, align 4, !tbaa !15
  br label %35

35:                                               ; preds = %54, %4
  %36 = load i32, ptr %13, align 4, !tbaa !15
  %37 = load ptr, ptr %5, align 8, !tbaa !3
  %38 = getelementptr inbounds nuw %struct.Gia_Man_t_, ptr %37, i32 0, i32 12
  %39 = load ptr, ptr %38, align 8, !tbaa !42
  %40 = call i32 @Vec_IntSize(ptr noundef %39)
  %41 = icmp slt i32 %36, %40
  br i1 %41, label %42, label %47

42:                                               ; preds = %35
  %43 = load ptr, ptr %5, align 8, !tbaa !3
  %44 = load i32, ptr %13, align 4, !tbaa !15
  %45 = call ptr @Gia_ManCo(ptr noundef %43, i32 noundef %44)
  store ptr %45, ptr %11, align 8, !tbaa !16
  %46 = icmp ne ptr %45, null
  br label %47

47:                                               ; preds = %42, %35
  %48 = phi i1 [ false, %35 ], [ %46, %42 ]
  br i1 %48, label %49, label %57

49:                                               ; preds = %47
  %50 = load ptr, ptr %11, align 8, !tbaa !16
  %51 = load i64, ptr %50, align 4
  %52 = and i64 %51, 9223372036854775807
  %53 = or i64 %52, 0
  store i64 %53, ptr %50, align 4
  br label %54

54:                                               ; preds = %49
  %55 = load i32, ptr %13, align 4, !tbaa !15
  %56 = add nsw i32 %55, 1
  store i32 %56, ptr %13, align 4, !tbaa !15
  br label %35, !llvm.loop !66

57:                                               ; preds = %47
  %58 = load ptr, ptr %6, align 8, !tbaa !8
  %59 = getelementptr inbounds nuw %struct.Abc_Cex_t_, ptr %58, i32 0, i32 1
  %60 = load i32, ptr %59, align 4, !tbaa !13
  store i32 %60, ptr %12, align 4, !tbaa !15
  br label %61

61:                                               ; preds = %160, %57
  %62 = load i32, ptr %12, align 4, !tbaa !15
  %63 = icmp sge i32 %62, 0
  br i1 %63, label %64, label %163

64:                                               ; preds = %61
  %65 = load i32, ptr %12, align 4, !tbaa !15
  %66 = load ptr, ptr %6, align 8, !tbaa !8
  %67 = getelementptr inbounds nuw %struct.Abc_Cex_t_, ptr %66, i32 0, i32 1
  %68 = load i32, ptr %67, align 4, !tbaa !13
  %69 = icmp eq i32 %65, %68
  %70 = zext i1 %69 to i32
  %71 = load ptr, ptr %5, align 8, !tbaa !3
  %72 = load ptr, ptr %6, align 8, !tbaa !8
  %73 = getelementptr inbounds nuw %struct.Abc_Cex_t_, ptr %72, i32 0, i32 0
  %74 = load i32, ptr %73, align 4, !tbaa !14
  %75 = call ptr @Gia_ManPo(ptr noundef %71, i32 noundef %74)
  %76 = zext i32 %70 to i64
  %77 = load i64, ptr %75, align 4
  %78 = and i64 %76, 1
  %79 = shl i64 %78, 63
  %80 = and i64 %77, 9223372036854775807
  %81 = or i64 %80, %79
  store i64 %81, ptr %75, align 4
  store i32 0, ptr %13, align 4, !tbaa !15
  br label %82

82:                                               ; preds = %109, %64
  %83 = load i32, ptr %13, align 4, !tbaa !15
  %84 = load ptr, ptr %5, align 8, !tbaa !3
  %85 = call i32 @Gia_ManRegNum(ptr noundef %84)
  %86 = icmp slt i32 %83, %85
  br i1 %86, label %87, label %95

87:                                               ; preds = %82
  %88 = load ptr, ptr %5, align 8, !tbaa !3
  %89 = load ptr, ptr %5, align 8, !tbaa !3
  %90 = call i32 @Gia_ManPiNum(ptr noundef %89)
  %91 = load i32, ptr %13, align 4, !tbaa !15
  %92 = add nsw i32 %90, %91
  %93 = call ptr @Gia_ManCi(ptr noundef %88, i32 noundef %92)
  store ptr %93, ptr %10, align 8, !tbaa !16
  %94 = icmp ne ptr %93, null
  br label %95

95:                                               ; preds = %87, %82
  %96 = phi i1 [ false, %82 ], [ %94, %87 ]
  br i1 %96, label %97, label %112

97:                                               ; preds = %95
  %98 = load ptr, ptr %8, align 8, !tbaa !50
  %99 = load i32, ptr %12, align 4, !tbaa !15
  %100 = load ptr, ptr %6, align 8, !tbaa !8
  %101 = getelementptr inbounds nuw %struct.Abc_Cex_t_, ptr %100, i32 0, i32 2
  %102 = load i32, ptr %101, align 4, !tbaa !10
  %103 = mul nsw i32 %99, %102
  %104 = load i32, ptr %13, align 4, !tbaa !15
  %105 = add nsw i32 %103, %104
  %106 = call i32 @Vec_IntEntry(ptr noundef %98, i32 noundef %105)
  %107 = load ptr, ptr %10, align 8, !tbaa !16
  %108 = getelementptr inbounds nuw %struct.Gia_Obj_t_, ptr %107, i32 0, i32 1
  store i32 %106, ptr %108, align 4, !tbaa !52
  br label %109

109:                                              ; preds = %97
  %110 = load i32, ptr %13, align 4, !tbaa !15
  %111 = add nsw i32 %110, 1
  store i32 %111, ptr %13, align 4, !tbaa !15
  br label %82, !llvm.loop !67

112:                                              ; preds = %95
  %113 = load ptr, ptr %5, align 8, !tbaa !3
  %114 = load ptr, ptr %6, align 8, !tbaa !8
  %115 = load i32, ptr %12, align 4, !tbaa !15
  %116 = load ptr, ptr %7, align 8, !tbaa !50
  call void @Bmc_CexCarePropagateFwdOne(ptr noundef %113, ptr noundef %114, i32 noundef %115, ptr noundef %116)
  %117 = load ptr, ptr %5, align 8, !tbaa !3
  %118 = load ptr, ptr %6, align 8, !tbaa !8
  %119 = load i32, ptr %12, align 4, !tbaa !15
  %120 = load ptr, ptr %9, align 8, !tbaa !8
  call void @Bmc_CexCarePropagateBwdOne(ptr noundef %117, ptr noundef %118, i32 noundef %119, ptr noundef %120)
  store i32 0, ptr %13, align 4, !tbaa !15
  br label %121

121:                                              ; preds = %156, %112
  %122 = load i32, ptr %13, align 4, !tbaa !15
  %123 = load ptr, ptr %5, align 8, !tbaa !3
  %124 = call i32 @Gia_ManRegNum(ptr noundef %123)
  %125 = icmp slt i32 %122, %124
  br i1 %125, label %126, label %142

126:                                              ; preds = %121
  %127 = load ptr, ptr %5, align 8, !tbaa !3
  %128 = load ptr, ptr %5, align 8, !tbaa !3
  %129 = call i32 @Gia_ManPoNum(ptr noundef %128)
  %130 = load i32, ptr %13, align 4, !tbaa !15
  %131 = add nsw i32 %129, %130
  %132 = call ptr @Gia_ManCo(ptr noundef %127, i32 noundef %131)
  store ptr %132, ptr %11, align 8, !tbaa !16
  %133 = icmp ne ptr %132, null
  br i1 %133, label %134, label %142

134:                                              ; preds = %126
  %135 = load ptr, ptr %5, align 8, !tbaa !3
  %136 = load ptr, ptr %5, align 8, !tbaa !3
  %137 = call i32 @Gia_ManPiNum(ptr noundef %136)
  %138 = load i32, ptr %13, align 4, !tbaa !15
  %139 = add nsw i32 %137, %138
  %140 = call ptr @Gia_ManCi(ptr noundef %135, i32 noundef %139)
  store ptr %140, ptr %10, align 8, !tbaa !16
  %141 = icmp ne ptr %140, null
  br label %142

142:                                              ; preds = %134, %126, %121
  %143 = phi i1 [ false, %126 ], [ false, %121 ], [ %141, %134 ]
  br i1 %143, label %144, label %159

144:                                              ; preds = %142
  %145 = load ptr, ptr %10, align 8, !tbaa !16
  %146 = load i64, ptr %145, align 4
  %147 = lshr i64 %146, 63
  %148 = trunc i64 %147 to i32
  %149 = load ptr, ptr %11, align 8, !tbaa !16
  %150 = zext i32 %148 to i64
  %151 = load i64, ptr %149, align 4
  %152 = and i64 %150, 1
  %153 = shl i64 %152, 63
  %154 = and i64 %151, 9223372036854775807
  %155 = or i64 %154, %153
  store i64 %155, ptr %149, align 4
  br label %156

156:                                              ; preds = %144
  %157 = load i32, ptr %13, align 4, !tbaa !15
  %158 = add nsw i32 %157, 1
  store i32 %158, ptr %13, align 4, !tbaa !15
  br label %121, !llvm.loop !68

159:                                              ; preds = %142
  br label %160

160:                                              ; preds = %159
  %161 = load i32, ptr %12, align 4, !tbaa !15
  %162 = add nsw i32 %161, -1
  store i32 %162, ptr %12, align 4, !tbaa !15
  br label %61, !llvm.loop !69

163:                                              ; preds = %61
  %164 = load ptr, ptr %9, align 8, !tbaa !8
  call void @llvm.lifetime.end.p0(i64 4, ptr %13) #8
  call void @llvm.lifetime.end.p0(i64 4, ptr %12) #8
  call void @llvm.lifetime.end.p0(i64 8, ptr %11) #8
  call void @llvm.lifetime.end.p0(i64 8, ptr %10) #8
  call void @llvm.lifetime.end.p0(i64 8, ptr %9) #8
  ret ptr %164
}