; Function Attrs: nounwind uwtable
define noundef ptr @Bmc_CexCarePropagateBwd(ptr noundef readonly captures(none) %0, ptr noundef readonly captures(none) %1, ptr noundef readonly captures(none) %2, ptr noundef readonly captures(none) %3) local_unnamed_addr #0 {
  %5 = getelementptr inbounds nuw i8, ptr %1, i64 8
  %6 = load i32, ptr %5, align 4, !tbaa !3
  %7 = getelementptr inbounds nuw i8, ptr %1, i64 12
  %8 = load i32, ptr %7, align 4, !tbaa !42
  %9 = getelementptr inbounds nuw i8, ptr %1, i64 4
  %10 = load i32, ptr %9, align 4, !tbaa !30
  %11 = add nsw i32 %10, 1
  %12 = tail call ptr @Abc_CexAlloc(i32 noundef %6, i32 noundef %8, i32 noundef %11) #11
  %13 = load i32, ptr %1, align 4, !tbaa !31
  store i32 %13, ptr %12, align 4, !tbaa !31
  %14 = load i32, ptr %9, align 4, !tbaa !30
  %15 = getelementptr inbounds nuw i8, ptr %12, i64 4
  store i32 %14, ptr %15, align 4, !tbaa !30
  %16 = getelementptr i8, ptr %0, i64 32
  %17 = getelementptr inbounds nuw i8, ptr %0, i64 72
  %18 = load ptr, ptr %17, align 8, !tbaa !34
  %19 = getelementptr i8, ptr %18, i64 4
  %.val6382 = load i32, ptr %19, align 4, !tbaa !36
  %20 = icmp sgt i32 %.val6382, 0
  br i1 %20, label %.lr.ph, label %.critedge

.lr.ph:                                           ; preds = %4, %22
  %indvars.iv = phi i64 [ %indvars.iv.next, %22 ], [ 0, %4 ]
  %21 = phi ptr [ %30, %22 ], [ %18, %4 ]
  %.val69 = load ptr, ptr %16, align 8, !tbaa !32
  %.not = icmp eq ptr %.val69, null
  br i1 %.not, label %.critedge.loopexit, label %22

22:                                               ; preds = %.lr.ph
  %23 = getelementptr i8, ptr %21, i64 8
  %.val70.val = load ptr, ptr %23, align 8, !tbaa !35
  %24 = getelementptr inbounds nuw i32, ptr %.val70.val, i64 %indvars.iv
  %25 = load i32, ptr %24, align 4, !tbaa !37
  %26 = sext i32 %25 to i64
  %27 = getelementptr inbounds %struct.Gia_Obj_t_, ptr %.val69, i64 %26
  %28 = load i64, ptr %27, align 4
  %29 = and i64 %28, 9223372036854775807
  store i64 %29, ptr %27, align 4
  %indvars.iv.next = add nuw nsw i64 %indvars.iv, 1
  %30 = load ptr, ptr %17, align 8, !tbaa !34
  %31 = getelementptr i8, ptr %30, i64 4
  %.val63 = load i32, ptr %31, align 4, !tbaa !36
  %32 = sext i32 %.val63 to i64
  %33 = icmp slt i64 %indvars.iv.next, %32
  br i1 %33, label %.lr.ph, label %.critedge.loopexit, !llvm.loop !61

.critedge.loopexit:                               ; preds = %22, %.lr.ph
  %.pre = load i32, ptr %9, align 4, !tbaa !30
  br label %.critedge

.critedge:                                        ; preds = %.critedge.loopexit, %4
  %34 = phi i32 [ %.pre, %.critedge.loopexit ], [ %14, %4 ]
  %35 = icmp sgt i32 %34, -1
  br i1 %35, label %.lr.ph95, label %._crit_edge

.lr.ph95:                                         ; preds = %.critedge
  %36 = getelementptr i8, ptr %0, i64 16
  %37 = getelementptr i8, ptr %0, i64 64
  %38 = getelementptr i8, ptr %3, i64 8
  br label %39

39:                                               ; preds = %.lr.ph95, %.critedge4
  %.05494 = phi i32 [ %34, %.lr.ph95 ], [ %93, %.critedge4 ]
  %40 = load i32, ptr %9, align 4, !tbaa !30
  %41 = icmp eq i32 %.05494, %40
  %42 = load i32, ptr %1, align 4, !tbaa !31
  %.val79 = load ptr, ptr %16, align 8, !tbaa !32
  %.val80 = load ptr, ptr %17, align 8, !tbaa !34
  %43 = getelementptr i8, ptr %.val80, i64 8
  %.val80.val = load ptr, ptr %43, align 8, !tbaa !35
  %44 = sext i32 %42 to i64
  %45 = getelementptr inbounds i32, ptr %.val80.val, i64 %44
  %46 = load i32, ptr %45, align 4, !tbaa !37
  %47 = sext i32 %46 to i64
  %48 = getelementptr inbounds %struct.Gia_Obj_t_, ptr %.val79, i64 %47
  %49 = load i64, ptr %48, align 4
  %50 = select i1 %41, i64 -9223372036854775808, i64 0
  %51 = and i64 %49, 9223372036854775807
  %52 = or disjoint i64 %51, %50
  store i64 %52, ptr %48, align 4
  %.val62 = load i32, ptr %36, align 8, !tbaa !33
  %53 = icmp sgt i32 %.val62, 0
  br i1 %53, label %.lr.ph86, label %.critedge2

.lr.ph86:                                         ; preds = %39
  %.val77 = load ptr, ptr %16, align 8, !tbaa !32
  %.not59 = icmp eq ptr %.val77, null
  br i1 %.not59, label %.critedge2, label %.lr.ph86.split

.lr.ph86.split:                                   ; preds = %.lr.ph86
  %.val74 = load ptr, ptr %37, align 8, !tbaa !40
  %54 = getelementptr i8, ptr %.val74, i64 8
  %.val78.val = load ptr, ptr %54, align 8, !tbaa !35
  %55 = getelementptr i8, ptr %.val74, i64 4
  %.val74.val = load i32, ptr %55, align 4, !tbaa !36
  %invariant.op = sub i32 %.val74.val, %.val62
  %56 = load i32, ptr %5, align 4, !tbaa !3
  %57 = mul nsw i32 %56, %.05494
  %.val66 = load ptr, ptr %38, align 8, !tbaa !35
  %58 = sext i32 %57 to i64
  %wide.trip.count = zext nneg i32 %.val62 to i64
  %invariant.gep = getelementptr i32, ptr %.val66, i64 %58
  br label %59

59:                                               ; preds = %.lr.ph86.split, %59
  %indvars.iv97 = phi i64 [ 0, %.lr.ph86.split ], [ %indvars.iv.next98, %59 ]
  %60 = trunc nuw nsw i64 %indvars.iv97 to i32
  %.reass = add i32 %invariant.op, %60
  %61 = sext i32 %.reass to i64
  %62 = getelementptr inbounds i32, ptr %.val78.val, i64 %61
  %63 = load i32, ptr %62, align 4, !tbaa !37
  %64 = sext i32 %63 to i64
  %gep = getelementptr i32, ptr %invariant.gep, i64 %indvars.iv97
  %65 = load i32, ptr %gep, align 4, !tbaa !37
  %66 = getelementptr inbounds %struct.Gia_Obj_t_, ptr %.val77, i64 %64, i32 1
  store i32 %65, ptr %66, align 4, !tbaa !48
  %indvars.iv.next98 = add nuw nsw i64 %indvars.iv97, 1
  %exitcond.not = icmp eq i64 %indvars.iv.next98, %wide.trip.count
  br i1 %exitcond.not, label %.critedge2, label %59, !llvm.loop !62

.critedge2:                                       ; preds = %59, %.lr.ph86, %39
  tail call void @Bmc_CexCarePropagateFwdOne(ptr noundef nonnull %0, ptr noundef nonnull %1, i32 noundef %.05494, ptr noundef %2)
  tail call void @Bmc_CexCarePropagateBwdOne(ptr noundef nonnull %0, ptr nonnull poison, i32 noundef %.05494, ptr noundef nonnull %12)
  %.val88 = load i32, ptr %36, align 8, !tbaa !33
  %67 = icmp sgt i32 %.val88, 0
  br i1 %67, label %.lr.ph92, label %.critedge4

.lr.ph92:                                         ; preds = %.critedge2, %68
  %.val.pn = phi i32 [ %.val, %68 ], [ %.val88, %.critedge2 ]
  %.290 = phi i32 [ %91, %68 ], [ 0, %.critedge2 ]
  %.val67 = load ptr, ptr %16, align 8, !tbaa !32
  %.not60 = icmp eq ptr %.val67, null
  br i1 %.not60, label %.critedge4, label %68

68:                                               ; preds = %.lr.ph92
  %.val65 = load ptr, ptr %17, align 8, !tbaa !34
  %69 = getelementptr i8, ptr %.val65, i64 8
  %.val68.val = load ptr, ptr %69, align 8, !tbaa !35
  %70 = sub i32 %.290, %.val.pn
  %71 = getelementptr i8, ptr %.val65, i64 4
  %.val65.val = load i32, ptr %71, align 4, !tbaa !36
  %72 = add i32 %70, %.val65.val
  %73 = sext i32 %72 to i64
  %74 = getelementptr inbounds i32, ptr %.val68.val, i64 %73
  %75 = load i32, ptr %74, align 4, !tbaa !37
  %76 = sext i32 %75 to i64
  %77 = getelementptr inbounds %struct.Gia_Obj_t_, ptr %.val67, i64 %76
  %.val72 = load ptr, ptr %37, align 8, !tbaa !40
  %78 = getelementptr i8, ptr %.val72, i64 8
  %.val76.val = load ptr, ptr %78, align 8, !tbaa !35
  %79 = getelementptr i8, ptr %.val72, i64 4
  %.val72.val = load i32, ptr %79, align 4, !tbaa !36
  %80 = add i32 %70, %.val72.val
  %81 = sext i32 %80 to i64
  %82 = getelementptr inbounds i32, ptr %.val76.val, i64 %81
  %83 = load i32, ptr %82, align 4, !tbaa !37
  %84 = sext i32 %83 to i64
  %85 = getelementptr inbounds %struct.Gia_Obj_t_, ptr %.val67, i64 %84
  %86 = load i64, ptr %85, align 4
  %87 = and i64 %86, -9223372036854775808
  %88 = load i64, ptr %77, align 4
  %89 = and i64 %88, 9223372036854775807
  %90 = or disjoint i64 %89, %87
  store i64 %90, ptr %77, align 4
  %91 = add nuw nsw i32 %.290, 1
  %.val = load i32, ptr %36, align 8, !tbaa !33
  %92 = icmp slt i32 %91, %.val
  br i1 %92, label %.lr.ph92, label %.critedge4, !llvm.loop !63

.critedge4:                                       ; preds = %.lr.ph92, %68, %.critedge2
  %93 = add nsw i32 %.05494, -1
  %94 = icmp sgt i32 %.05494, 0
  br i1 %94, label %39, label %._crit_edge, !llvm.loop !64

._crit_edge:                                      ; preds = %.critedge4, %.critedge
  ret ptr %12
}